; Function Attrs: null_pointer_is_valid sspstrong uwtable
define internal noundef zeroext i16 @be_lsa_id_list(ptr noundef %0, ptr noundef %1, ptr readnone captures(none) %2, i32 noundef %3, i32 noundef %4, ptr readnone captures(none) %5, i32 %6) #1 {
  %8 = load i32, ptr @hf_gsm_a_bssmap_spare_bits, align 4
  %9 = shl i32 %3, 3
  %10 = tail call ptr @proto_tree_add_bits_item(ptr noundef %1, i32 noundef %8, ptr noundef %0, i32 noundef %9, i32 noundef 7, i32 noundef 0)
  %11 = load i32, ptr @hf_gsm_a_bssmap_ep, align 4
  %12 = tail call ptr @proto_tree_add_item(ptr noundef %1, i32 noundef %11, ptr noundef %0, i32 noundef %3, i32 noundef 1, i32 noundef 0)
  %13 = icmp ugt i32 %4, 1
  br i1 %13, label %.lr.ph.preheader, label %._crit_edge

.lr.ph.preheader:                                 ; preds = %7
  %14 = add i32 %3, 1
  br label %.lr.ph

.lr.ph:                                           ; preds = %.lr.ph.preheader, %.lr.ph
  %.016 = phi i32 [ %17, %.lr.ph ], [ %14, %.lr.ph.preheader ]
  %15 = load i32, ptr @hf_gsm_a_bssmap_lsa_id, align 4
  %16 = tail call ptr @proto_tree_add_item(ptr noundef %1, i32 noundef %15, ptr noundef %0, i32 noundef %.016, i32 noundef 3, i32 noundef 0)
  %17 = add i32 %.016, 3
  %18 = sub i32 %17, %3
  %19 = icmp ult i32 %18, %4
  br i1 %19, label %.lr.ph, label %._crit_edge, !llvm.loop !11

._crit_edge:                                      ; preds = %.lr.ph, %7
  %20 = trunc i32 %4 to i16
  ret i16 %20
}